(dp1
S'fp_rff_lambda_0.01_sigma_30.0_n_fp_rff_1024'
p2
(dp3
S'train_approx_error'
p4
F73027.529531029664
sS'train_l2_error'
p5
F20994496.908036094
sS'test_approx_error'
p6
F8097.433178059975
sS'test_l2_error'
p7
F41656813.031932294
ssS'exact_kernel_lambda_0.005_sigma_30.0'
p8
(dp9
S'train_approx_error'
p10
F0
sS'train_l2_error'
p11
F9817874.9047736824
sS'test_approx_error'
p12
F0
sS'test_l2_error'
p13
F30915896.495733183
ssS'lp_rff_lambda_0.05_sigma_30.0_n_fp_rff_1024_nbit_8'
p14
(dp15
S'train_approx_error'
p16
F84683.886565148016
sS'train_l2_error'
p17
F20789002.225492962
sS'test_approx_error'
p18
F9355.1070680011217
sS'test_l2_error'
p19
F38100185.429486729
ssS'lp_rff_lambda_0.05_sigma_30.0_n_fp_rff_1024_nbit_2'
p20
(dp21
S'train_approx_error'
p22
F5643.5572224038779
sS'train_l2_error'
p23
F301346127298.87146
sS'test_approx_error'
p24
F642.19291106222875
sS'test_l2_error'
p25
F73383984001824.094
ssS'lp_rff_lambda_0.05_sigma_30.0_n_fp_rff_1024_nbit_1'
p26
(dp27
S'train_approx_error'
p28
F24543.964712941772
sS'train_l2_error'
p29
F10595937484.80892
sS'test_approx_error'
p30
F2736.1012173616687
sS'test_l2_error'
p31
F3703101768808.1279
ssS'lp_rff_lambda_0.05_sigma_30.0_n_fp_rff_1024_nbit_4'
p32
(dp33
S'train_approx_error'
p34
F8724.5758748425233
sS'train_l2_error'
p35
F22638852.866428621
sS'test_approx_error'
p36
F1001.6982281342573
sS'test_l2_error'
p37
F73127563.749064475
ssS'fp_rff_lambda_0.005_sigma_30.0_n_fp_rff_4096'
p38
(dp39
S'train_approx_error'
p40
F17266.104588818645
sS'train_l2_error'
p41
F12186053.076022334
sS'test_approx_error'
p42
F1962.3005854213263
sS'test_l2_error'
p43
F34975048.044054449
ssS'lp_rff_lambda_0.01_sigma_30.0_n_fp_rff_1024_nbit_4'
p44
(dp45
S'train_approx_error'
p46
F3390.0755138118238
sS'train_l2_error'
p47
F35507619.413389154
sS'test_approx_error'
p48
F387.58333201278401
sS'test_l2_error'
p49
F3779385512.8625274
ssS'lp_rff_lambda_0.01_sigma_30.0_n_fp_rff_1024_nbit_2'
p50
(dp51
S'train_approx_error'
p52
F6228.5852774592777
sS'train_l2_error'
p53
F150951939613.64011
sS'test_approx_error'
p54
F702.62431738361533
sS'test_l2_error'
p55
F87577293208082.781
ssS'lp_rff_lambda_0.01_sigma_30.0_n_fp_rff_1024_nbit_1'
p56
(dp57
S'train_approx_error'
p58
F47255.397081874566
sS'train_l2_error'
p59
F9646101785.0289841
sS'test_approx_error'
p60
F5298.8407393220468
sS'test_l2_error'
p61
F80389432487724.453
ssS'lp_rff_lambda_0.01_sigma_30.0_n_fp_rff_1024_nbit_8'
p62
(dp63
S'train_approx_error'
p64
F19818.372412561759
sS'train_l2_error'
p65
F13960060.730544426
sS'test_approx_error'
p66
F2163.9503967088867
sS'test_l2_error'
p67
F52868384.873200685
ssS'lp_rff_lambda_0.005_sigma_30.0_n_fp_rff_1024_nbit_8'
p68
(dp69
S'train_approx_error'
p70
F15846.354510840847
sS'train_l2_error'
p71
F11975492.534107868
sS'test_approx_error'
p72
F1822.9667023077056
sS'test_l2_error'
p73
F42410186.859944761
ssS'exact_kernel_lambda_0.01_sigma_30.0'
p74
(dp75
S'train_approx_error'
p76
F0
sS'train_l2_error'
p77
F12072866.400782587
sS'test_approx_error'
p78
F0
sS'test_l2_error'
p79
F31958736.029462609
ssS'lp_rff_lambda_0.05_sigma_30.0_n_fp_rff_4096_nbit_32'
p80
(dp81
S'train_approx_error'
p82
F25517.765172898959
sS'train_l2_error'
p83
F20748916.848798595
sS'test_approx_error'
p84
F2826.3257163408102
sS'test_l2_error'
p85
F33781996.42402418
ssS'lp_rff_lambda_0.005_sigma_30.0_n_fp_rff_1024_nbit_2'
p86
(dp87
S'train_approx_error'
p88
F11841.558791116102
sS'train_l2_error'
p89
F27138811726.319069
sS'test_approx_error'
p90
F1309.8269488996075
sS'test_l2_error'
p91
F78775362090342.312
ssS'lp_rff_lambda_0.01_sigma_30.0_n_fp_rff_1024_nbit_16'
p92
(dp93
S'train_approx_error'
p94
F139682.93238446274
sS'train_l2_error'
p95
F16493551.505854191
sS'test_approx_error'
p96
F15536.725748089657
sS'test_l2_error'
p97
F39021605.783752248
ssS'lp_rff_lambda_0.005_sigma_30.0_n_fp_rff_1024_nbit_1'
p98
(dp99
S'train_approx_error'
p100
F22861.781507412161
sS'train_l2_error'
p101
F38711385.218196668
sS'test_approx_error'
p102
F2563.2262352958996
sS'test_l2_error'
p103
F1426002896485.6775
ssS'lp_rff_lambda_0.005_sigma_30.0_n_fp_rff_1024_nbit_4'
p104
(dp105
S'train_approx_error'
p106
F12620.634042479405
sS'train_l2_error'
p107
F16389488838.068966
sS'test_approx_error'
p108
F1481.4136708095702
sS'test_l2_error'
p109
F27725344162999.027
ssS'lp_rff_lambda_0.05_sigma_30.0_n_fp_rff_4096_nbit_16'
p110
(dp111
S'train_approx_error'
p112
F6044.0406735486058
sS'train_l2_error'
p113
F20061182.390292794
sS'test_approx_error'
p114
F685.344768138841
sS'test_l2_error'
p115
F35860911.147973433
ssS'lp_rff_lambda_0.005_sigma_30.0_n_fp_rff_4096_nbit_2'
p116
(dp117
S'train_approx_error'
p118
F2343.4180015537213
sS'train_l2_error'
p119
F20341235438.529106
sS'test_approx_error'
p120
F256.90878682916866
sS'test_l2_error'
p121
F31184913982282.023
ssS'lp_rff_lambda_0.005_sigma_30.0_n_fp_rff_65536_nbit_8'
p122
(dp123
S'train_approx_error'
p124
F404.51536112468676
sS'train_l2_error'
p125
F9859076.5252436008
sS'test_approx_error'
p126
F44.534654112834183
sS'test_l2_error'
p127
F31180764.515684124
ssS'lp_rff_lambda_0.005_sigma_30.0_n_fp_rff_4096_nbit_1'
p128
(dp129
S'train_approx_error'
p130
F6377.0667974287053
sS'train_l2_error'
p131
F1062761861.6799664
sS'test_approx_error'
p132
F698.7834007194017
sS'test_l2_error'
p133
F11283929830811.979
ssS'lp_rff_lambda_0.01_sigma_30.0_n_fp_rff_4096_nbit_2'
p134
(dp135
S'train_approx_error'
p136
F1750.4310559981893
sS'train_l2_error'
p137
F13002573490.26219
sS'test_approx_error'
p138
F195.66758225877828
sS'test_l2_error'
p139
F40820867256208.258
ssS'lp_rff_lambda_0.005_sigma_30.0_n_fp_rff_4096_nbit_4'
p140
(dp141
S'train_approx_error'
p142
F1328.6556385816339
sS'train_l2_error'
p143
F27211902.729843237
sS'test_approx_error'
p144
F156.00230572222216
sS'test_l2_error'
p145
F2078735116.2078023
ssS'lp_rff_lambda_0.005_sigma_30.0_n_fp_rff_4096_nbit_8'
p146
(dp147
S'train_approx_error'
p148
F1662.118575328283
sS'train_l2_error'
p149
F10368180.00659287
sS'test_approx_error'
p150
F187.60430909896598
sS'test_l2_error'
p151
F65463750.5411743
ssS'lp_rff_lambda_0.005_sigma_30.0_n_fp_rff_65536_nbit_2'
p152
(dp153
S'train_approx_error'
p154
F97.358836883270769
sS'train_l2_error'
p155
F124853953644.5016
sS'test_approx_error'
p156
F10.971305973005844
sS'test_l2_error'
p157
F30177867937208.184
ssS'lp_rff_lambda_0.005_sigma_30.0_n_fp_rff_65536_nbit_4'
p158
(dp159
S'train_approx_error'
p160
F239.91559608655282
sS'train_l2_error'
p161
F10358199.823780332
sS'test_approx_error'
p162
F26.414393426132591
sS'test_l2_error'
p163
F430912909.62831891
ssS'lp_rff_lambda_0.01_sigma_30.0_n_fp_rff_4096_nbit_8'
p164
(dp165
S'train_approx_error'
p166
F8162.9291054900759
sS'train_l2_error'
p167
F12614453.150197711
sS'test_approx_error'
p168
F909.87576563157381
sS'test_l2_error'
p169
F34825061.526777223
ssS'exact_kernel_lambda_0.05_sigma_30.0'
p170
(dp171
S'train_approx_error'
p172
F0
sS'train_l2_error'
p173
F19119945.099914115
sS'test_approx_error'
p174
F0
sS'test_l2_error'
p175
F34675661.978094615
ssS'lp_rff_lambda_0.005_sigma_30.0_n_fp_rff_4096_nbit_16'
p176
(dp177
S'train_approx_error'
p178
F4017.1604185268648
sS'train_l2_error'
p179
F10800491.241993392
sS'test_approx_error'
p180
F447.56485646924574
sS'test_l2_error'
p181
F32538782.028086767
ssS'fp_rff_lambda_0.005_sigma_30.0_n_fp_rff_65536'
p182
(dp183
S'train_approx_error'
p184
F6954.6704577784267
sS'train_l2_error'
p185
F9976248.79978537
sS'test_approx_error'
p186
F777.4568759204567
sS'test_l2_error'
p187
F31104448.911351509
ssS'fp_rff_lambda_0.05_sigma_30.0_n_fp_rff_1024'
p188
(dp189
S'train_approx_error'
p190
F83997.745072065474
sS'train_l2_error'
p191
F25557708.440758482
sS'test_approx_error'
p192
F9354.7540174527094
sS'test_l2_error'
p193
F39231242.382690042
ssS'lp_rff_lambda_0.01_sigma_30.0_n_fp_rff_4096_nbit_16'
p194
(dp195
S'train_approx_error'
p196
F5390.2899901663604
sS'train_l2_error'
p197
F12971975.385668011
sS'test_approx_error'
p198
F598.75117770453164
sS'test_l2_error'
p199
F34446407.920535959
ssS'fp_rff_lambda_0.005_sigma_30.0_n_fp_rff_16384'
p200
(dp201
S'train_approx_error'
p202
F19625.443254567341
sS'train_l2_error'
p203
F10280541.460775454
sS'test_approx_error'
p204
F2237.9581688524499
sS'test_l2_error'
p205
F30256100.878882654
ssS'lp_rff_lambda_0.05_sigma_30.0_n_fp_rff_4096_nbit_1'
p206
(dp207
S'train_approx_error'
p208
F5751.5885811173339
sS'train_l2_error'
p209
F41152244415.624237
sS'test_approx_error'
p210
F650.16956176615781
sS'test_l2_error'
p211
F3250136821369.6851
ssS'lp_rff_lambda_0.05_sigma_30.0_n_fp_rff_16384_nbit_8'
p212
(dp213
S'train_approx_error'
p214
F1866.1735550672959
sS'train_l2_error'
p215
F19179461.84619651
sS'test_approx_error'
p216
F205.89629131176468
sS'test_l2_error'
p217
F34746390.918556772
ssS'lp_rff_lambda_0.005_sigma_30.0_n_fp_rff_65536_nbit_16'
p218
(dp219
S'train_approx_error'
p220
F850.96485675745851
sS'train_l2_error'
p221
F9895497.1354511622
sS'test_approx_error'
p222
F92.925721374917259
sS'test_l2_error'
p223
F30748985.989381101
ssS'lp_rff_lambda_0.05_sigma_30.0_n_fp_rff_16384_nbit_2'
p224
(dp225
S'train_approx_error'
p226
F414.66040736149267
sS'train_l2_error'
p227
F33977008.651786596
sS'test_approx_error'
p228
F45.797623416747172
sS'test_l2_error'
p229
F76894585.002192393
ssS'lp_rff_lambda_0.05_sigma_30.0_n_fp_rff_16384_nbit_1'
p230
(dp231
S'train_approx_error'
p232
F1599.6516703804207
sS'train_l2_error'
p233
F53130553246.804634
sS'test_approx_error'
p234
F182.34582286280857
sS'test_l2_error'
p235
F1184542594287.9377
ssS'lp_rff_lambda_0.05_sigma_30.0_n_fp_rff_1024_nbit_16'
p236
(dp237
S'train_approx_error'
p238
F23748.220467503135
sS'train_l2_error'
p239
F22146906.089277148
sS'test_approx_error'
p240
F2772.6978456427569
sS'test_l2_error'
p241
F35756424.07301718
ssS'lp_rff_lambda_0.05_sigma_30.0_n_fp_rff_16384_nbit_4'
p242
(dp243
S'train_approx_error'
p244
F226.00175029334366
sS'train_l2_error'
p245
F19388073.64371508
sS'test_approx_error'
p246
F26.369994045089836
sS'test_l2_error'
p247
F78863662.694751471
ssS'fp_rff_lambda_0.01_sigma_30.0_n_fp_rff_4096'
p248
(dp249
S'train_approx_error'
p250
F69494.332943632107
sS'train_l2_error'
p251
F14230898.303401163
sS'test_approx_error'
p252
F7714.3936742355536
sS'test_l2_error'
p253
F33724957.493000567
ssS'lp_rff_lambda_0.005_sigma_30.0_n_fp_rff_1024_nbit_32'
p254
(dp255
S'train_approx_error'
p256
F28520.562483681817
sS'train_l2_error'
p257
F19450390.331016526
sS'test_approx_error'
p258
F3187.9813102914172
sS'test_l2_error'
p259
F37625799.543462656
ssS'lp_rff_lambda_0.01_sigma_30.0_n_fp_rff_4096_nbit_4'
p260
(dp261
S'train_approx_error'
p262
F4186.6766329787251
sS'train_l2_error'
p263
F15965761.947512303
sS'test_approx_error'
p264
F461.11937588795314
sS'test_l2_error'
p265
F203335251.71685442
ssS'lp_rff_lambda_0.005_sigma_30.0_n_fp_rff_16384_nbit_8'
p266
(dp267
S'train_approx_error'
p268
F6283.8565115188649
sS'train_l2_error'
p269
F9914000.0457442664
sS'test_approx_error'
p270
F699.61868403654637
sS'test_l2_error'
p271
F37943082.425317243
ssS'lp_rff_lambda_0.05_sigma_30.0_n_fp_rff_16384_nbit_16'
p272
(dp273
S'train_approx_error'
p274
F878.12205396682486
sS'train_l2_error'
p275
F19321419.365137003
sS'test_approx_error'
p276
F98.362216462159211
sS'test_l2_error'
p277
F35050260.641465053
ssS'lp_rff_lambda_0.005_sigma_30.0_n_fp_rff_16384_nbit_4'
p278
(dp279
S'train_approx_error'
p280
F885.27422423396274
sS'train_l2_error'
p281
F12044162.316722957
sS'test_approx_error'
p282
F97.049170944756185
sS'test_l2_error'
p283
F374480169.30558926
ssS'lp_rff_lambda_0.005_sigma_30.0_n_fp_rff_16384_nbit_1'
p284
(dp285
S'train_approx_error'
p286
F1969.5314534426229
sS'train_l2_error'
p287
F467287722.80088001
sS'test_approx_error'
p288
F221.39570716853817
sS'test_l2_error'
p289
F2266119670321.9902
ssS'lp_rff_lambda_0.005_sigma_30.0_n_fp_rff_16384_nbit_2'
p290
(dp291
S'train_approx_error'
p292
F523.12010271803797
sS'train_l2_error'
p293
F29489617598.010925
sS'test_approx_error'
p294
F57.055853192383978
sS'test_l2_error'
p295
F4573345159994.0293
ssS'lp_rff_lambda_0.05_sigma_30.0_n_fp_rff_4096_nbit_2'
p296
(dp297
S'train_approx_error'
p298
F11866.118829640489
sS'train_l2_error'
p299
F106149719050.56587
sS'test_approx_error'
p300
F1303.1589659263973
sS'test_l2_error'
p301
F2705460758606.1836
ssS'lp_rff_lambda_0.005_sigma_30.0_n_fp_rff_1024_nbit_16'
p302
(dp303
S'train_approx_error'
p304
F29530.245187497574
sS'train_l2_error'
p305
F14626301.016438326
sS'test_approx_error'
p306
F3395.94766427271
sS'test_l2_error'
p307
F38114673.836222999
ssS'lp_rff_lambda_0.01_sigma_30.0_n_fp_rff_4096_nbit_1'
p308
(dp309
S'train_approx_error'
p310
F7270.912093095314
sS'train_l2_error'
p311
F6415511915.008399
sS'test_approx_error'
p312
F798.21790937644732
sS'test_l2_error'
p313
F13833208511703.504
ssS'lp_rff_lambda_0.05_sigma_30.0_n_fp_rff_4096_nbit_4'
p314
(dp315
S'train_approx_error'
p316
F2470.3876105110812
sS'train_l2_error'
p317
F19886426.87405378
sS'test_approx_error'
p318
F274.91574815968136
sS'test_l2_error'
p319
F55910269.212771684
ssS'lp_rff_lambda_0.05_sigma_30.0_n_fp_rff_4096_nbit_8'
p320
(dp321
S'train_approx_error'
p322
F11525.645899410922
sS'train_l2_error'
p323
F19602864.613232154
sS'test_approx_error'
p324
F1292.8125193647634
sS'test_l2_error'
p325
F35219929.863702692
ssS'lp_rff_lambda_0.01_sigma_30.0_n_fp_rff_16384_nbit_4'
p326
(dp327
S'train_approx_error'
p328
F619.4611039914156
sS'train_l2_error'
p329
F12947492.033320926
sS'test_approx_error'
p330
F67.169271845943527
sS'test_l2_error'
p331
F126397123.78396843
ssS'lp_rff_lambda_0.01_sigma_30.0_n_fp_rff_16384_nbit_2'
p332
(dp333
S'train_approx_error'
p334
F1482.2316886292415
sS'train_l2_error'
p335
F3872750988190.2925
sS'test_approx_error'
p336
F164.19592502940299
sS'test_l2_error'
p337
F481274370797237
ssS'lp_rff_lambda_0.01_sigma_30.0_n_fp_rff_16384_nbit_1'
p338
(dp339
S'train_approx_error'
p340
F1414.7731244170482
sS'train_l2_error'
p341
F1183069393959.8064
sS'test_approx_error'
p342
F156.69669614527658
sS'test_l2_error'
p343
F997127155596944.5
ssS'lp_rff_lambda_0.01_sigma_30.0_n_fp_rff_16384_nbit_8'
p344
(dp345
S'train_approx_error'
p346
F2507.3541596986329
sS'train_l2_error'
p347
F12214171.53070109
sS'test_approx_error'
p348
F274.71958616414372
sS'test_l2_error'
p349
F32183779.344325934
ssS'lp_rff_lambda_0.01_sigma_30.0_n_fp_rff_1024_nbit_32'
p350
(dp351
S'train_approx_error'
p352
F57001.58340879414
sS'train_l2_error'
p353
F20911849.733401962
sS'test_approx_error'
p354
F6611.3657607414862
sS'test_l2_error'
p355
F40802845.764441468
ssS'lp_rff_lambda_0.005_sigma_30.0_n_fp_rff_16384_nbit_32'
p356
(dp357
S'train_approx_error'
p358
F31327.403161827675
sS'train_l2_error'
p359
F10455589.559932554
sS'test_approx_error'
p360
F3481.7973638564226
sS'test_l2_error'
p361
F31652470.539453719
ssS'lp_rff_lambda_0.01_sigma_30.0_n_fp_rff_16384_nbit_16'
p362
(dp363
S'train_approx_error'
p364
F2514.519886790802
sS'train_l2_error'
p365
F12365602.760208653
sS'test_approx_error'
p366
F282.77039493236248
sS'test_l2_error'
p367
F32424162.316051379
ssS'fp_rff_lambda_0.01_sigma_30.0_n_fp_rff_16384'
p368
(dp369
S'train_approx_error'
p370
F6589.8899040621127
sS'train_l2_error'
p371
F12487741.348387277
sS'test_approx_error'
p372
F762.8403813864021
sS'test_l2_error'
p373
F33768470.491378404
ssS'lp_rff_lambda_0.005_sigma_30.0_n_fp_rff_4096_nbit_32'
p374
(dp375
S'train_approx_error'
p376
F196918.96822789632
sS'train_l2_error'
p377
F11977759.750329606
sS'test_approx_error'
p378
F21775.605953464448
sS'test_l2_error'
p379
F35547422.422708809
ssS'fp_rff_lambda_0.05_sigma_30.0_n_fp_rff_4096'
p380
(dp381
S'train_approx_error'
p382
F19143.736294713202
sS'train_l2_error'
p383
F21191982.72574522
sS'test_approx_error'
p384
F2144.0119004624989
sS'test_l2_error'
p385
F36538111.147607572
ssS'lp_rff_lambda_0.01_sigma_30.0_n_fp_rff_4096_nbit_32'
p386
(dp387
S'train_approx_error'
p388
F35904.000836928033
sS'train_l2_error'
p389
F14036331.030360026
sS'test_approx_error'
p390
F3967.1472035537336
sS'test_l2_error'
p391
F33774863.363887765
ssS'lp_rff_lambda_0.05_sigma_30.0_n_fp_rff_16384_nbit_32'
p392
(dp393
S'train_approx_error'
p394
F7189.8735466577318
sS'train_l2_error'
p395
F19601808.035503276
sS'test_approx_error'
p396
F799.68583716459887
sS'test_l2_error'
p397
F35480711.696172327
ssS'fp_rff_lambda_0.005_sigma_30.0_n_fp_rff_1024'
p398
(dp399
S'train_approx_error'
p400
F181156.93570026694
sS'train_l2_error'
p401
F19779185.347295638
sS'test_approx_error'
p402
F20397.762205712948
sS'test_l2_error'
p403
F43403993.374649003
ssS'lp_rff_lambda_0.01_sigma_30.0_n_fp_rff_16384_nbit_32'
p404
(dp405
S'train_approx_error'
p406
F12330.397722091137
sS'train_l2_error'
p407
F12582628.546302598
sS'test_approx_error'
p408
F1375.1909982253947
sS'test_l2_error'
p409
F32656837.764693826
ssS'lp_rff_lambda_0.005_sigma_30.0_n_fp_rff_16384_nbit_16'
p410
(dp411
S'train_approx_error'
p412
F2092.8827820180832
sS'train_l2_error'
p413
F10057108.335338984
sS'test_approx_error'
p414
F223.96997755597087
sS'test_l2_error'
p415
F32217046.282072943
ssS'fp_rff_lambda_0.05_sigma_30.0_n_fp_rff_16384'
p416
(dp417
S'train_approx_error'
p418
F2730.5796556424384
sS'train_l2_error'
p419
F19455845.649902441
sS'test_approx_error'
p420
F311.08220188986297
sS'test_l2_error'
p421
F34819919.260449462
ssS'lp_rff_lambda_0.005_sigma_30.0_n_fp_rff_65536_nbit_32'
p422
(dp423
S'train_approx_error'
p424
F4315.7086560507651
sS'train_l2_error'
p425
F9990565.7788350303
sS'test_approx_error'
p426
F476.46608234915402
sS'test_l2_error'
p427
F30957855.303258397
ssS'lp_rff_lambda_0.05_sigma_30.0_n_fp_rff_1024_nbit_32'
p428
(dp429
S'train_approx_error'
p430
F215728.88922547485
sS'train_l2_error'
p431
F26345359.743821718
sS'test_approx_error'
p432
F23969.371251434346
sS'test_l2_error'
p433
F42687985.000133514
ss.