(dp1
S'exact_kernel_lambda_0.001_sigma_30.0'
p2
(dp3
S'train_approx_error'
p4
F0
sS'train_l2_error'
p5
F5929284.3414471792
sS'test_approx_error'
p6
F0
sS'test_l2_error'
p7
F28647053.381472938
ssS'lp_rff_lambda_0.0001_sigma_30.0_n_fp_rff_16384_nbit_16'
p8
(dp9
S'train_approx_error'
p10
F885.41237238352323
sS'train_l2_error'
p11
F8060987.0078116413
sS'test_approx_error'
p12
F98.565743934356476
sS'test_l2_error'
p13
F38372697.567214794
ssS'fp_rff_lambda_0.001_sigma_30.0_n_fp_rff_16384'
p14
(dp15
S'train_approx_error'
p16
F19774.699873467311
sS'train_l2_error'
p17
F6384868.2269895142
sS'test_approx_error'
p18
F2204.4805238465042
sS'test_l2_error'
p19
F29106509.776146844
ssS'exact_kernel_lambda_0.0005_sigma_30.0'
p20
(dp21
S'train_approx_error'
p22
F0
sS'train_l2_error'
p23
F4719733.4077421138
sS'test_approx_error'
p24
F0
sS'test_l2_error'
p25
F28102534.461082418
ssS'lp_rff_lambda_0.0001_sigma_30.0_n_fp_rff_4096_nbit_4'
p26
(dp27
S'train_approx_error'
p28
F1644.4714734399054
sS'train_l2_error'
p29
F4809112033.4412479
sS'test_approx_error'
p30
F184.35743701312651
sS'test_l2_error'
p31
F359810993562610.44
ssS'fp_rff_lambda_0.0005_sigma_30.0_n_fp_rff_16384'
p32
(dp33
S'train_approx_error'
p34
F3722.7973331252388
sS'train_l2_error'
p35
F5347776.4143656259
sS'test_approx_error'
p36
F410.13635796705199
sS'test_l2_error'
p37
F29469812.457675193
ssS'fp_rff_lambda_0.0005_sigma_30.0_n_fp_rff_1024'
p38
(dp39
S'train_approx_error'
p40
F95932.12728895832
sS'train_l2_error'
p41
F18974682.842196245
sS'test_approx_error'
p42
F10737.341249398291
sS'test_l2_error'
p43
F50873431.09288919
ssS'fp_rff_lambda_0.0001_sigma_30.0_n_fp_rff_4096'
p44
(dp45
S'train_approx_error'
p46
F48772.890404761099
sS'train_l2_error'
p47
F9732499.6161520835
sS'test_approx_error'
p48
F5318.6741014778527
sS'test_l2_error'
p49
F42229300.50371702
ssS'lp_rff_lambda_0.0005_sigma_30.0_n_fp_rff_16384_nbit_8'
p50
(dp51
S'train_approx_error'
p52
F6308.6442564265271
sS'train_l2_error'
p53
F4923571.9819863979
sS'test_approx_error'
p54
F700.35390595164984
sS'test_l2_error'
p55
F209516028.24528253
ssS'lp_rff_lambda_0.0005_sigma_30.0_n_fp_rff_16384_nbit_4'
p56
(dp57
S'train_approx_error'
p58
F219.50524837947574
sS'train_l2_error'
p59
F14418034231.903379
sS'test_approx_error'
p60
F25.518844563305521
sS'test_l2_error'
p61
F8426568794725.4912
ssS'lp_rff_lambda_0.0005_sigma_30.0_n_fp_rff_1024_nbit_16'
p62
(dp63
S'train_approx_error'
p64
F11519.309835278556
sS'train_l2_error'
p65
F11449895.000514116
sS'test_approx_error'
p66
F1312.2065686290771
sS'test_l2_error'
p67
F46343571.429838717
ssS'lp_rff_lambda_0.0005_sigma_30.0_n_fp_rff_16384_nbit_1'
p68
(dp69
S'train_approx_error'
p70
F1416.0542542365122
sS'train_l2_error'
p71
F9276587.4365412444
sS'test_approx_error'
p72
F157.32121347474927
sS'test_l2_error'
p73
F4349173745957.8154
ssS'lp_rff_lambda_0.0005_sigma_30.0_n_fp_rff_16384_nbit_2'
p74
(dp75
S'train_approx_error'
p76
F336.6829903244581
sS'train_l2_error'
p77
F190664430047.45578
sS'test_approx_error'
p78
F36.522568608484093
sS'test_l2_error'
p79
F2770377202116512.5
ssS'fp_rff_lambda_0.0001_sigma_30.0_n_fp_rff_65536'
p80
(dp81
S'train_approx_error'
p82
F735.20492415564672
sS'train_l2_error'
p83
F14539021.037507288
sS'test_approx_error'
p84
F82.842348234185479
sS'test_l2_error'
p85
F42430481.371358149
ssS'lp_rff_lambda_0.001_sigma_30.0_n_fp_rff_1024_nbit_4'
p86
(dp87
S'train_approx_error'
p88
F7410.2537106695117
sS'train_l2_error'
p89
F95488365425.891632
sS'test_approx_error'
p90
F845.59348016012098
sS'test_l2_error'
p91
F488711905514754.25
ssS'lp_rff_lambda_0.0001_sigma_30.0_n_fp_rff_65536_nbit_8'
p92
(dp93
S'train_approx_error'
p94
F1637.8771475364194
sS'train_l2_error'
p95
F7003209.7343792617
sS'test_approx_error'
p96
F182.81762387707877
sS'test_l2_error'
p97
F4073652957.1943374
ssS'fp_rff_lambda_0.0005_sigma_30.0_n_fp_rff_4096'
p98
(dp99
S'train_approx_error'
p100
F5500.4644304617586
sS'train_l2_error'
p101
F7805011.6812084792
sS'test_approx_error'
p102
F639.31391516538565
sS'test_l2_error'
p103
F37881093.508706957
ssS'lp_rff_lambda_0.0001_sigma_30.0_n_fp_rff_65536_nbit_4'
p104
(dp105
S'train_approx_error'
p106
F137.92935221863763
sS'train_l2_error'
p107
F2255770615.1032214
sS'test_approx_error'
p108
F15.648723065785223
sS'test_l2_error'
p109
F39742015750734.547
ssS'lp_rff_lambda_0.0005_sigma_30.0_n_fp_rff_4096_nbit_1'
p110
(dp111
S'train_approx_error'
p112
F6646.3678703826517
sS'train_l2_error'
p113
F1077852.601141277
sS'test_approx_error'
p114
F731.70098030213398
sS'test_l2_error'
p115
F1566967216033.2744
ssS'lp_rff_lambda_0.001_sigma_30.0_n_fp_rff_1024_nbit_8'
p116
(dp117
S'train_approx_error'
p118
F11520.620547091092
sS'train_l2_error'
p119
F8681346.1216775514
sS'test_approx_error'
p120
F1282.7808861455767
sS'test_l2_error'
p121
F1450157467.7830539
ssS'lp_rff_lambda_0.001_sigma_30.0_n_fp_rff_16384_nbit_1'
p122
(dp123
S'train_approx_error'
p124
F1848.0980588931759
sS'train_l2_error'
p125
F1265874387.325258
sS'test_approx_error'
p126
F204.6187840750687
sS'test_l2_error'
p127
F62334643575114.242
ssS'lp_rff_lambda_0.001_sigma_30.0_n_fp_rff_16384_nbit_2'
p128
(dp129
S'train_approx_error'
p130
F712.22853287208613
sS'train_l2_error'
p131
F7989285306.8922787
sS'test_approx_error'
p132
F79.582605978545701
sS'test_l2_error'
p133
F113304886152539.83
ssS'lp_rff_lambda_0.001_sigma_30.0_n_fp_rff_16384_nbit_4'
p134
(dp135
S'train_approx_error'
p136
F2203.8162798115786
sS'train_l2_error'
p137
F4388660905.4340429
sS'test_approx_error'
p138
F241.38743793547744
sS'test_l2_error'
p139
F20459410485898.766
ssS'lp_rff_lambda_0.0005_sigma_30.0_n_fp_rff_1024_nbit_8'
p140
(dp141
S'train_approx_error'
p142
F120730.81454589803
sS'train_l2_error'
p143
F7819395.6620766707
sS'test_approx_error'
p144
F13274.954696646308
sS'test_l2_error'
p145
F4275370004.3165803
ssS'lp_rff_lambda_0.001_sigma_30.0_n_fp_rff_16384_nbit_8'
p146
(dp147
S'train_approx_error'
p148
F4487.9261182029149
sS'train_l2_error'
p149
F6074699.4657038059
sS'test_approx_error'
p150
F487.89731440136848
sS'test_l2_error'
p151
F38415209.105660744
ssS'lp_rff_lambda_0.0005_sigma_30.0_n_fp_rff_1024_nbit_4'
p152
(dp153
S'train_approx_error'
p154
F14262.351744319798
sS'train_l2_error'
p155
F50719252017.671288
sS'test_approx_error'
p156
F1622.325334912086
sS'test_l2_error'
p157
F999169250117851.88
ssS'lp_rff_lambda_0.0005_sigma_30.0_n_fp_rff_16384_nbit_16'
p158
(dp159
S'train_approx_error'
p160
F2955.3484400815473
sS'train_l2_error'
p161
F4989131.4579379968
sS'test_approx_error'
p162
F328.44739435379347
sS'test_l2_error'
p163
F28151946.409679133
ssS'lp_rff_lambda_0.0005_sigma_30.0_n_fp_rff_1024_nbit_1'
p164
(dp165
S'train_approx_error'
p166
F28133.394915384764
sS'train_l2_error'
p167
F6770025.6768118609
sS'test_approx_error'
p168
F3188.0934819366021
sS'test_l2_error'
p169
F48043526928691.477
ssS'lp_rff_lambda_0.001_sigma_30.0_n_fp_rff_1024_nbit_16'
p170
(dp171
S'train_approx_error'
p172
F64731.901682521908
sS'train_l2_error'
p173
F12027457.831769273
sS'test_approx_error'
p174
F7357.1558551309572
sS'test_l2_error'
p175
F38589389.102270402
ssS'lp_rff_lambda_0.0005_sigma_30.0_n_fp_rff_1024_nbit_2'
p176
(dp177
S'train_approx_error'
p178
F9113.8199899274859
sS'train_l2_error'
p179
F3030354520.2705302
sS'test_approx_error'
p180
F984.75324847451509
sS'test_l2_error'
p181
F2972658946514518.5
ssS'lp_rff_lambda_0.0001_sigma_30.0_n_fp_rff_1024_nbit_1'
p182
(dp183
S'train_approx_error'
p184
F23501.881015696497
sS'train_l2_error'
p185
F45111.260758326403
sS'test_approx_error'
p186
F2670.1959947514024
sS'test_l2_error'
p187
F2812475468292.5542
ssS'lp_rff_lambda_0.001_sigma_30.0_n_fp_rff_4096_nbit_4'
p188
(dp189
S'train_approx_error'
p190
F1186.1250247947269
sS'train_l2_error'
p191
F333169169757.44464
sS'test_approx_error'
p192
F135.33689659105659
sS'test_l2_error'
p193
F12152656089920494
ssS'lp_rff_lambda_0.0001_sigma_30.0_n_fp_rff_1024_nbit_2'
p194
(dp195
S'train_approx_error'
p196
F8294.6111424898936
sS'train_l2_error'
p197
F55628885996620.836
sS'test_approx_error'
p198
F931.52279948867499
sS'test_l2_error'
p199
F2.6450862708384942e+21
ssS'lp_rff_lambda_0.001_sigma_30.0_n_fp_rff_4096_nbit_2'
p200
(dp201
S'train_approx_error'
p202
F4682.6671870394784
sS'train_l2_error'
p203
F89937803.79153128
sS'test_approx_error'
p204
F518.3195371433161
sS'test_l2_error'
p205
F803786795843.89697
ssS'lp_rff_lambda_0.0001_sigma_30.0_n_fp_rff_1024_nbit_4'
p206
(dp207
S'train_approx_error'
p208
F24463.40950872453
sS'train_l2_error'
p209
F464588428806.75342
sS'test_approx_error'
p210
F2693.211322902232
sS'test_l2_error'
p211
F1.1542128599270376e+17
ssS'lp_rff_lambda_0.001_sigma_30.0_n_fp_rff_4096_nbit_1'
p212
(dp213
S'train_approx_error'
p214
F6212.1709040622445
sS'train_l2_error'
p215
F513651784.63560945
sS'test_approx_error'
p216
F692.5784450359331
sS'test_l2_error'
p217
F242573718856439.53
ssS'lp_rff_lambda_0.0001_sigma_30.0_n_fp_rff_65536_nbit_16'
p218
(dp219
S'train_approx_error'
p220
F425.43413714916323
sS'train_l2_error'
p221
F6355804.193361369
sS'test_approx_error'
p222
F48.767509619043679
sS'test_l2_error'
p223
F35966926.576298036
ssS'lp_rff_lambda_0.0001_sigma_30.0_n_fp_rff_1024_nbit_8'
p224
(dp225
S'train_approx_error'
p226
F12638.563332034739
sS'train_l2_error'
p227
F10517923.014980368
sS'test_approx_error'
p228
F1448.128385752186
sS'test_l2_error'
p229
F22927351849.727608
ssS'lp_rff_lambda_0.001_sigma_30.0_n_fp_rff_16384_nbit_16'
p230
(dp231
S'train_approx_error'
p232
F5724.2871190309797
sS'train_l2_error'
p233
F6161411.8291569781
sS'test_approx_error'
p234
F644.07095332636686
sS'test_l2_error'
p235
F29930004.564320713
ssS'lp_rff_lambda_0.001_sigma_30.0_n_fp_rff_4096_nbit_8'
p236
(dp237
S'train_approx_error'
p238
F23201.405577258214
sS'train_l2_error'
p239
F6522961.3684028108
sS'test_approx_error'
p240
F2611.7105685240404
sS'test_l2_error'
p241
F64559725.421729416
ssS'lp_rff_lambda_0.0001_sigma_30.0_n_fp_rff_16384_nbit_1'
p242
(dp243
S'train_approx_error'
p244
F1853.9832759548128
sS'train_l2_error'
p245
F3861394.0524702198
sS'test_approx_error'
p246
F206.47075050221707
sS'test_l2_error'
p247
F11880478880740.84
ssS'lp_rff_lambda_0.0005_sigma_30.0_n_fp_rff_4096_nbit_16'
p248
(dp249
S'train_approx_error'
p250
F14040.536982026673
sS'train_l2_error'
p251
F5846095.0796680404
sS'test_approx_error'
p252
F1557.189612330726
sS'test_l2_error'
p253
F28981216.381032381
ssS'lp_rff_lambda_0.0001_sigma_30.0_n_fp_rff_16384_nbit_4'
p254
(dp255
S'train_approx_error'
p256
F273.16516592255738
sS'train_l2_error'
p257
F21559014214.452415
sS'test_approx_error'
p258
F30.348141210556427
sS'test_l2_error'
p259
F33710340242157.371
ssS'lp_rff_lambda_0.0001_sigma_30.0_n_fp_rff_16384_nbit_8'
p260
(dp261
S'train_approx_error'
p262
F6823.7719065111032
sS'train_l2_error'
p263
F6976435.2143963762
sS'test_approx_error'
p264
F752.80812161595532
sS'test_l2_error'
p265
F640603054.02056646
ssS'lp_rff_lambda_0.0001_sigma_30.0_n_fp_rff_4096_nbit_1'
p266
(dp267
S'train_approx_error'
p268
F5647.5710729134344
sS'train_l2_error'
p269
F242760.38959425676
sS'test_approx_error'
p270
F629.74129568067406
sS'test_l2_error'
p271
F2695791281813.834
ssS'lp_rff_lambda_0.0001_sigma_30.0_n_fp_rff_4096_nbit_2'
p272
(dp273
S'train_approx_error'
p274
F1402.6518291320224
sS'train_l2_error'
p275
F4045245.7218133062
sS'test_approx_error'
p276
F158.42704875934868
sS'test_l2_error'
p277
F3126275875813.6128
ssS'lp_rff_lambda_0.001_sigma_30.0_n_fp_rff_4096_nbit_32'
p278
(dp279
S'train_approx_error'
p280
F52848.639956856336
sS'train_l2_error'
p281
F8570051.4268215001
sS'test_approx_error'
p282
F5891.854460143948
sS'test_l2_error'
p283
F34615391.23998832
ssS'lp_rff_lambda_0.0001_sigma_30.0_n_fp_rff_1024_nbit_32'
p284
(dp285
S'train_approx_error'
p286
F263556.9567861156
sS'train_l2_error'
p287
F25379187.014116503
sS'test_approx_error'
p288
F28727.028503943333
sS'test_l2_error'
p289
F51647305.44531323
ssS'lp_rff_lambda_0.0001_sigma_30.0_n_fp_rff_4096_nbit_8'
p290
(dp291
S'train_approx_error'
p292
F3009.526800224111
sS'train_l2_error'
p293
F5710004.51459233
sS'test_approx_error'
p294
F341.2376457218806
sS'test_l2_error'
p295
F13237500397.507563
ssS'lp_rff_lambda_0.0001_sigma_30.0_n_fp_rff_16384_nbit_2'
p296
(dp297
S'train_approx_error'
p298
F584.68651949045477
sS'train_l2_error'
p299
F4150179.5106074219
sS'test_approx_error'
p300
F68.570943303818979
sS'test_l2_error'
p301
F841538790085.72205
ssS'lp_rff_lambda_0.0001_sigma_30.0_n_fp_rff_16384_nbit_32'
p302
(dp303
S'train_approx_error'
p304
F1435.8461768951261
sS'train_l2_error'
p305
F5136279.303527263
sS'test_approx_error'
p306
F168.1025272184707
sS'test_l2_error'
p307
F42383329.002174117
ssS'exact_kernel_lambda_0.0001_sigma_30.0'
p308
(dp309
S'train_approx_error'
p310
F0
sS'train_l2_error'
p311
F4109275.6893467028
sS'test_approx_error'
p312
F0
sS'test_l2_error'
p313
F31713387.325332768
ssS'lp_rff_lambda_0.001_sigma_30.0_n_fp_rff_1024_nbit_2'
p314
(dp315
S'train_approx_error'
p316
F9263.2963634394728
sS'train_l2_error'
p317
F16201783621.096745
sS'test_approx_error'
p318
F1043.2859613785743
sS'test_l2_error'
p319
F4186595381367020.5
ssS'lp_rff_lambda_0.0001_sigma_30.0_n_fp_rff_4096_nbit_32'
p320
(dp321
S'train_approx_error'
p322
F61204.791292735135
sS'train_l2_error'
p323
F7688891.0235636206
sS'test_approx_error'
p324
F6678.1091779451053
sS'test_l2_error'
p325
F52694037.011825778
ssS'lp_rff_lambda_0.001_sigma_30.0_n_fp_rff_1024_nbit_1'
p326
(dp327
S'train_approx_error'
p328
F22780.503167656669
sS'train_l2_error'
p329
F73335722.078809112
sS'test_approx_error'
p330
F2528.1266818383201
sS'test_l2_error'
p331
F59120780128000.109
ssS'fp_rff_lambda_0.0001_sigma_30.0_n_fp_rff_1024'
p332
(dp333
S'train_approx_error'
p334
F39628.413039865598
sS'train_l2_error'
p335
F30701061.505520787
sS'test_approx_error'
p336
F4318.4858732901594
sS'test_l2_error'
p337
F51965794.73658251
ssS'lp_rff_lambda_0.0005_sigma_30.0_n_fp_rff_1024_nbit_32'
p338
(dp339
S'train_approx_error'
p340
F45571.400153150636
sS'train_l2_error'
p341
F19133500.123902697
sS'test_approx_error'
p342
F5134.7860627979371
sS'test_l2_error'
p343
F52321876.857590653
ssS'lp_rff_lambda_0.0001_sigma_30.0_n_fp_rff_4096_nbit_16'
p344
(dp345
S'train_approx_error'
p346
F9721.0194760433969
sS'train_l2_error'
p347
F5097698.8696444826
sS'test_approx_error'
p348
F1094.2447206263453
sS'test_l2_error'
p349
F44350862.997528024
ssS'fp_rff_lambda_0.0001_sigma_30.0_n_fp_rff_16384'
p350
(dp351
S'train_approx_error'
p352
F2464.6830442823352
sS'train_l2_error'
p353
F5129177.7432478135
sS'test_approx_error'
p354
F279.13710847539903
sS'test_l2_error'
p355
F36432324.954449169
ssS'fp_rff_lambda_0.001_sigma_30.0_n_fp_rff_1024'
p356
(dp357
S'train_approx_error'
p358
F393738.94528901915
sS'train_l2_error'
p359
F19650264.816840593
sS'test_approx_error'
p360
F43437.574060834035
sS'test_l2_error'
p361
F51927298.601251639
ssS'lp_rff_lambda_0.0005_sigma_30.0_n_fp_rff_4096_nbit_4'
p362
(dp363
S'train_approx_error'
p364
F29758.088518080363
sS'train_l2_error'
p365
F13804016913.564569
sS'test_approx_error'
p366
F3306.5173722194254
sS'test_l2_error'
p367
F27063774018594.754
ssS'lp_rff_lambda_0.001_sigma_30.0_n_fp_rff_1024_nbit_32'
p368
(dp369
S'train_approx_error'
p370
F39220.612678684651
sS'train_l2_error'
p371
F19312248.765563544
sS'test_approx_error'
p372
F4562.3025475818076
sS'test_l2_error'
p373
F53926291.947568677
ssS'lp_rff_lambda_0.0005_sigma_30.0_n_fp_rff_16384_nbit_32'
p374
(dp375
S'train_approx_error'
p376
F13522.025085186524
sS'train_l2_error'
p377
F5384882.9605612736
sS'test_approx_error'
p378
F1507.0160712925363
sS'test_l2_error'
p379
F31589112.250903901
ssS'lp_rff_lambda_0.0005_sigma_30.0_n_fp_rff_4096_nbit_2'
p380
(dp381
S'train_approx_error'
p382
F2401.4694236825321
sS'train_l2_error'
p383
F21982055.06416985
sS'test_approx_error'
p384
F262.08186086089171
sS'test_l2_error'
p385
F8005267260006.8291
ssS'lp_rff_lambda_0.0001_sigma_30.0_n_fp_rff_65536_nbit_32'
p386
(dp387
S'train_approx_error'
p388
F1806.8428132737213
sS'train_l2_error'
p389
F6093206.8569448451
sS'test_approx_error'
p390
F206.68661851985064
sS'test_l2_error'
p391
F34899989.874380834
ssS'lp_rff_lambda_0.0005_sigma_30.0_n_fp_rff_4096_nbit_8'
p392
(dp393
S'train_approx_error'
p394
F11890.046607879925
sS'train_l2_error'
p395
F5414928.6611392219
sS'test_approx_error'
p396
F1334.036779348472
sS'test_l2_error'
p397
F760973786.7405417
ssS'lp_rff_lambda_0.0005_sigma_30.0_n_fp_rff_4096_nbit_32'
p398
(dp399
S'train_approx_error'
p400
F13047.449327695456
sS'train_l2_error'
p401
F7354445.3762575323
sS'test_approx_error'
p402
F1513.7483450958241
sS'test_l2_error'
p403
F36195799.53471455
ssS'lp_rff_lambda_0.001_sigma_30.0_n_fp_rff_16384_nbit_32'
p404
(dp405
S'train_approx_error'
p406
F9443.5604294730347
sS'train_l2_error'
p407
F6462503.9101626026
sS'test_approx_error'
p408
F1052.8448467206326
sS'test_l2_error'
p409
F30523766.341468103
ssS'fp_rff_lambda_0.001_sigma_30.0_n_fp_rff_4096'
p410
(dp411
S'train_approx_error'
p412
F19973.752709352844
sS'train_l2_error'
p413
F8378021.2394796479
sS'test_approx_error'
p414
F2281.1187789860105
sS'test_l2_error'
p415
F31636928.575175356
ssS'lp_rff_lambda_0.001_sigma_30.0_n_fp_rff_4096_nbit_16'
p416
(dp417
S'train_approx_error'
p418
F6890.4155436786486
sS'train_l2_error'
p419
F7071071.9483789876
sS'test_approx_error'
p420
F766.44725150426382
sS'test_l2_error'
p421
F31627262.591632202
ssS'lp_rff_lambda_0.0001_sigma_30.0_n_fp_rff_1024_nbit_16'
p422
(dp423
S'train_approx_error'
p424
F21866.304784536602
sS'train_l2_error'
p425
F15093012.441202559
sS'test_approx_error'
p426
F2486.53307328135
sS'test_l2_error'
p427
F51382866.936440863
ss.