(dp1
S'lp_rff_lambda_0.0001_sigma_30.0_n_fp_rff_4096_nbit_1'
p2
(dp3
S'train_approx_error'
p4
F5647.5710729134344
sS'train_l2_error'
p5
F242760.38959425676
sS'test_approx_error'
p6
F629.74129568067406
sS'test_l2_error'
p7
F2695791281813.834
ssS'lp_rff_lambda_0.001_sigma_30.0_n_fp_rff_4096_nbit_2'
p8
(dp9
S'train_approx_error'
p10
F4682.6671870394784
sS'train_l2_error'
p11
F89937803.79153128
sS'test_approx_error'
p12
F518.3195371433161
sS'test_l2_error'
p13
F803786795843.89697
ssS'exact_kernel_lambda_0.001_sigma_30.0'
p14
(dp15
S'train_approx_error'
p16
F0
sS'train_l2_error'
p17
F5929284.3414471792
sS'test_approx_error'
p18
F0
sS'test_l2_error'
p19
F28647053.381472938
ssS'lp_rff_lambda_0.001_sigma_30.0_n_fp_rff_4096_nbit_32'
p20
(dp21
S'train_approx_error'
p22
F52848.639956856336
sS'train_l2_error'
p23
F8570051.4268215001
sS'test_approx_error'
p24
F5891.854460143948
sS'test_l2_error'
p25
F34615391.23998832
ssS'lp_rff_lambda_0.0001_sigma_30.0_n_fp_rff_1024_nbit_32'
p26
(dp27
S'train_approx_error'
p28
F263556.9567861156
sS'train_l2_error'
p29
F25379187.014116503
sS'test_approx_error'
p30
F28727.028503943333
sS'test_l2_error'
p31
F51647305.44531323
ssS'lp_rff_lambda_0.0001_sigma_30.0_n_fp_rff_4096_nbit_8'
p32
(dp33
S'train_approx_error'
p34
F3009.526800224111
sS'train_l2_error'
p35
F5710004.51459233
sS'test_approx_error'
p36
F341.2376457218806
sS'test_l2_error'
p37
F13237500397.507563
ssS'lp_rff_lambda_0.0001_sigma_30.0_n_fp_rff_16384_nbit_2'
p38
(dp39
S'train_approx_error'
p40
F584.68651949045477
sS'train_l2_error'
p41
F4150179.5106074219
sS'test_approx_error'
p42
F68.570943303818979
sS'test_l2_error'
p43
F841538790085.72205
ssS'lp_rff_lambda_0.0001_sigma_30.0_n_fp_rff_16384_nbit_16'
p44
(dp45
S'train_approx_error'
p46
F885.41237238352323
sS'train_l2_error'
p47
F8060987.0078116413
sS'test_approx_error'
p48
F98.565743934356476
sS'test_l2_error'
p49
F38372697.567214794
ssS'lp_rff_lambda_0.0001_sigma_30.0_n_fp_rff_16384_nbit_32'
p50
(dp51
S'train_approx_error'
p52
F1435.8461768951261
sS'train_l2_error'
p53
F5136279.303527263
sS'test_approx_error'
p54
F168.1025272184707
sS'test_l2_error'
p55
F42383329.002174117
ssS'exact_kernel_lambda_0.0001_sigma_30.0'
p56
(dp57
S'train_approx_error'
p58
F0
sS'train_l2_error'
p59
F4109275.6893467028
sS'test_approx_error'
p60
F0
sS'test_l2_error'
p61
F31713387.325332768
ssS'lp_rff_lambda_0.0001_sigma_30.0_n_fp_rff_4096_nbit_2'
p62
(dp63
S'train_approx_error'
p64
F1402.6518291320224
sS'train_l2_error'
p65
F4045245.7218133062
sS'test_approx_error'
p66
F158.42704875934868
sS'test_l2_error'
p67
F3126275875813.6128
ssS'fp_rff_lambda_0.0001_sigma_30.0_n_fp_rff_4096'
p68
(dp69
S'train_approx_error'
p70
F48772.890404761099
sS'train_l2_error'
p71
F9732499.6161520835
sS'test_approx_error'
p72
F5318.6741014778527
sS'test_l2_error'
p73
F42229300.50371702
ssS'exact_kernel_lambda_0.0005_sigma_30.0'
p74
(dp75
S'train_approx_error'
p76
F0
sS'train_l2_error'
p77
F4719733.4077421138
sS'test_approx_error'
p78
F0
sS'test_l2_error'
p79
F28102534.461082418
ssS'lp_rff_lambda_0.0001_sigma_30.0_n_fp_rff_4096_nbit_4'
p80
(dp81
S'train_approx_error'
p82
F1644.4714734399054
sS'train_l2_error'
p83
F4809112033.4412479
sS'test_approx_error'
p84
F184.35743701312651
sS'test_l2_error'
p85
F359810993562610.44
ssS'lp_rff_lambda_0.0001_sigma_30.0_n_fp_rff_4096_nbit_32'
p86
(dp87
S'train_approx_error'
p88
F61204.791292735135
sS'train_l2_error'
p89
F7688891.0235636206
sS'test_approx_error'
p90
F6678.1091779451053
sS'test_l2_error'
p91
F52694037.011825778
ssS'lp_rff_lambda_0.001_sigma_30.0_n_fp_rff_1024_nbit_1'
p92
(dp93
S'train_approx_error'
p94
F22780.503167656669
sS'train_l2_error'
p95
F73335722.078809112
sS'test_approx_error'
p96
F2528.1266818383201
sS'test_l2_error'
p97
F59120780128000.109
ssS'fp_rff_lambda_0.0005_sigma_30.0_n_fp_rff_1024'
p98
(dp99
S'train_approx_error'
p100
F95932.12728895832
sS'train_l2_error'
p101
F18974682.842196245
sS'test_approx_error'
p102
F10737.341249398291
sS'test_l2_error'
p103
F50873431.09288919
ssS'fp_rff_lambda_0.0001_sigma_30.0_n_fp_rff_1024'
p104
(dp105
S'train_approx_error'
p106
F39628.413039865598
sS'train_l2_error'
p107
F30701061.505520787
sS'test_approx_error'
p108
F4318.4858732901594
sS'test_l2_error'
p109
F51965794.73658251
ssS'lp_rff_lambda_0.001_sigma_30.0_n_fp_rff_1024_nbit_16'
p110
(dp111
S'train_approx_error'
p112
F64731.901682521908
sS'train_l2_error'
p113
F12027457.831769273
sS'test_approx_error'
p114
F7357.1558551309572
sS'test_l2_error'
p115
F38589389.102270402
ssS'lp_rff_lambda_0.0005_sigma_30.0_n_fp_rff_1024_nbit_32'
p116
(dp117
S'train_approx_error'
p118
F45571.400153150636
sS'train_l2_error'
p119
F19133500.123902697
sS'test_approx_error'
p120
F5134.7860627979371
sS'test_l2_error'
p121
F52321876.857590653
ssS'lp_rff_lambda_0.0005_sigma_30.0_n_fp_rff_1024_nbit_16'
p122
(dp123
S'train_approx_error'
p124
F11519.309835278556
sS'train_l2_error'
p125
F11449895.000514116
sS'test_approx_error'
p126
F1312.2065686290771
sS'test_l2_error'
p127
F46343571.429838717
ssS'fp_rff_lambda_0.0001_sigma_30.0_n_fp_rff_16384'
p128
(dp129
S'train_approx_error'
p130
F2464.6830442823352
sS'train_l2_error'
p131
F5129177.7432478135
sS'test_approx_error'
p132
F279.13710847539903
sS'test_l2_error'
p133
F36432324.954449169
ssS'lp_rff_lambda_0.001_sigma_30.0_n_fp_rff_1024_nbit_4'
p134
(dp135
S'train_approx_error'
p136
F7410.2537106695117
sS'train_l2_error'
p137
F95488365425.891632
sS'test_approx_error'
p138
F845.59348016012098
sS'test_l2_error'
p139
F488711905514754.25
ssS'lp_rff_lambda_0.001_sigma_30.0_n_fp_rff_1024_nbit_2'
p140
(dp141
S'train_approx_error'
p142
F9263.2963634394728
sS'train_l2_error'
p143
F16201783621.096745
sS'test_approx_error'
p144
F1043.2859613785743
sS'test_l2_error'
p145
F4186595381367020.5
ssS'fp_rff_lambda_0.0005_sigma_30.0_n_fp_rff_4096'
p146
(dp147
S'train_approx_error'
p148
F5500.4644304617586
sS'train_l2_error'
p149
F7805011.6812084792
sS'test_approx_error'
p150
F639.31391516538565
sS'test_l2_error'
p151
F37881093.508706957
ssS'lp_rff_lambda_0.001_sigma_30.0_n_fp_rff_1024_nbit_8'
p152
(dp153
S'train_approx_error'
p154
F11520.620547091092
sS'train_l2_error'
p155
F8681346.1216775514
sS'test_approx_error'
p156
F1282.7808861455767
sS'test_l2_error'
p157
F1450157467.7830539
ssS'lp_rff_lambda_0.0005_sigma_30.0_n_fp_rff_1024_nbit_8'
p158
(dp159
S'train_approx_error'
p160
F120730.81454589803
sS'train_l2_error'
p161
F7819395.6620766707
sS'test_approx_error'
p162
F13274.954696646308
sS'test_l2_error'
p163
F4275370004.3165803
ssS'lp_rff_lambda_0.0005_sigma_30.0_n_fp_rff_1024_nbit_4'
p164
(dp165
S'train_approx_error'
p166
F14262.351744319798
sS'train_l2_error'
p167
F50719252017.671288
sS'test_approx_error'
p168
F1622.325334912086
sS'test_l2_error'
p169
F999169250117851.88
ssS'lp_rff_lambda_0.0005_sigma_30.0_n_fp_rff_1024_nbit_1'
p170
(dp171
S'train_approx_error'
p172
F28133.394915384764
sS'train_l2_error'
p173
F6770025.6768118609
sS'test_approx_error'
p174
F3188.0934819366021
sS'test_l2_error'
p175
F48043526928691.477
ssS'fp_rff_lambda_0.001_sigma_30.0_n_fp_rff_1024'
p176
(dp177
S'train_approx_error'
p178
F393738.94528901915
sS'train_l2_error'
p179
F19650264.816840593
sS'test_approx_error'
p180
F43437.574060834035
sS'test_l2_error'
p181
F51927298.601251639
ssS'lp_rff_lambda_0.0005_sigma_30.0_n_fp_rff_1024_nbit_2'
p182
(dp183
S'train_approx_error'
p184
F9113.8199899274859
sS'train_l2_error'
p185
F3030354520.2705302
sS'test_approx_error'
p186
F984.75324847451509
sS'test_l2_error'
p187
F2972658946514518.5
ssS'lp_rff_lambda_0.0001_sigma_30.0_n_fp_rff_1024_nbit_1'
p188
(dp189
S'train_approx_error'
p190
F23501.881015696497
sS'train_l2_error'
p191
F45111.260758326403
sS'test_approx_error'
p192
F2670.1959947514024
sS'test_l2_error'
p193
F2812475468292.5542
ssS'lp_rff_lambda_0.0005_sigma_30.0_n_fp_rff_4096_nbit_4'
p194
(dp195
S'train_approx_error'
p196
F29758.088518080363
sS'train_l2_error'
p197
F13804016913.564569
sS'test_approx_error'
p198
F3306.5173722194254
sS'test_l2_error'
p199
F27063774018594.754
ssS'lp_rff_lambda_0.001_sigma_30.0_n_fp_rff_4096_nbit_4'
p200
(dp201
S'train_approx_error'
p202
F1186.1250247947269
sS'train_l2_error'
p203
F333169169757.44464
sS'test_approx_error'
p204
F135.33689659105659
sS'test_l2_error'
p205
F12152656089920494
ssS'lp_rff_lambda_0.0001_sigma_30.0_n_fp_rff_1024_nbit_2'
p206
(dp207
S'train_approx_error'
p208
F8294.6111424898936
sS'train_l2_error'
p209
F55628885996620.836
sS'test_approx_error'
p210
F931.52279948867499
sS'test_l2_error'
p211
F2.6450862708384942e+21
ssS'lp_rff_lambda_0.0005_sigma_30.0_n_fp_rff_4096_nbit_1'
p212
(dp213
S'train_approx_error'
p214
F6646.3678703826517
sS'train_l2_error'
p215
F1077852.601141277
sS'test_approx_error'
p216
F731.70098030213398
sS'test_l2_error'
p217
F1566967216033.2744
ssS'lp_rff_lambda_0.0001_sigma_30.0_n_fp_rff_1024_nbit_4'
p218
(dp219
S'train_approx_error'
p220
F24463.40950872453
sS'train_l2_error'
p221
F464588428806.75342
sS'test_approx_error'
p222
F2693.211322902232
sS'test_l2_error'
p223
F1.1542128599270376e+17
ssS'lp_rff_lambda_0.0005_sigma_30.0_n_fp_rff_4096_nbit_2'
p224
(dp225
S'train_approx_error'
p226
F2401.4694236825321
sS'train_l2_error'
p227
F21982055.06416985
sS'test_approx_error'
p228
F262.08186086089171
sS'test_l2_error'
p229
F8005267260006.8291
ssS'lp_rff_lambda_0.001_sigma_30.0_n_fp_rff_1024_nbit_32'
p230
(dp231
S'train_approx_error'
p232
F39220.612678684651
sS'train_l2_error'
p233
F19312248.765563544
sS'test_approx_error'
p234
F4562.3025475818076
sS'test_l2_error'
p235
F53926291.947568677
ssS'lp_rff_lambda_0.0001_sigma_30.0_n_fp_rff_1024_nbit_8'
p236
(dp237
S'train_approx_error'
p238
F12638.563332034739
sS'train_l2_error'
p239
F10517923.014980368
sS'test_approx_error'
p240
F1448.128385752186
sS'test_l2_error'
p241
F22927351849.727608
ssS'lp_rff_lambda_0.001_sigma_30.0_n_fp_rff_4096_nbit_1'
p242
(dp243
S'train_approx_error'
p244
F6212.1709040622445
sS'train_l2_error'
p245
F513651784.63560945
sS'test_approx_error'
p246
F692.5784450359331
sS'test_l2_error'
p247
F242573718856439.53
ssS'lp_rff_lambda_0.0005_sigma_30.0_n_fp_rff_4096_nbit_8'
p248
(dp249
S'train_approx_error'
p250
F11890.046607879925
sS'train_l2_error'
p251
F5414928.6611392219
sS'test_approx_error'
p252
F1334.036779348472
sS'test_l2_error'
p253
F760973786.7405417
ssS'lp_rff_lambda_0.001_sigma_30.0_n_fp_rff_4096_nbit_8'
p254
(dp255
S'train_approx_error'
p256
F23201.405577258214
sS'train_l2_error'
p257
F6522961.3684028108
sS'test_approx_error'
p258
F2611.7105685240404
sS'test_l2_error'
p259
F64559725.421729416
ssS'lp_rff_lambda_0.0005_sigma_30.0_n_fp_rff_4096_nbit_32'
p260
(dp261
S'train_approx_error'
p262
F13047.449327695456
sS'train_l2_error'
p263
F7354445.3762575323
sS'test_approx_error'
p264
F1513.7483450958241
sS'test_l2_error'
p265
F36195799.53471455
ssS'lp_rff_lambda_0.0005_sigma_30.0_n_fp_rff_4096_nbit_16'
p266
(dp267
S'train_approx_error'
p268
F14040.536982026673
sS'train_l2_error'
p269
F5846095.0796680404
sS'test_approx_error'
p270
F1557.189612330726
sS'test_l2_error'
p271
F28981216.381032381
ssS'lp_rff_lambda_0.0001_sigma_30.0_n_fp_rff_16384_nbit_4'
p272
(dp273
S'train_approx_error'
p274
F273.16516592255738
sS'train_l2_error'
p275
F21559014214.452415
sS'test_approx_error'
p276
F30.348141210556427
sS'test_l2_error'
p277
F33710340242157.371
ssS'fp_rff_lambda_0.001_sigma_30.0_n_fp_rff_4096'
p278
(dp279
S'train_approx_error'
p280
F19973.752709352844
sS'train_l2_error'
p281
F8378021.2394796479
sS'test_approx_error'
p282
F2281.1187789860105
sS'test_l2_error'
p283
F31636928.575175356
ssS'lp_rff_lambda_0.0001_sigma_30.0_n_fp_rff_4096_nbit_16'
p284
(dp285
S'train_approx_error'
p286
F9721.0194760433969
sS'train_l2_error'
p287
F5097698.8696444826
sS'test_approx_error'
p288
F1094.2447206263453
sS'test_l2_error'
p289
F44350862.997528024
ssS'lp_rff_lambda_0.0001_sigma_30.0_n_fp_rff_16384_nbit_8'
p290
(dp291
S'train_approx_error'
p292
F6823.7719065111032
sS'train_l2_error'
p293
F6976435.2143963762
sS'test_approx_error'
p294
F752.80812161595532
sS'test_l2_error'
p295
F640603054.02056646
ssS'lp_rff_lambda_0.001_sigma_30.0_n_fp_rff_4096_nbit_16'
p296
(dp297
S'train_approx_error'
p298
F6890.4155436786486
sS'train_l2_error'
p299
F7071071.9483789876
sS'test_approx_error'
p300
F766.44725150426382
sS'test_l2_error'
p301
F31627262.591632202
ssS'lp_rff_lambda_0.0001_sigma_30.0_n_fp_rff_1024_nbit_16'
p302
(dp303
S'train_approx_error'
p304
F21866.304784536602
sS'train_l2_error'
p305
F15093012.441202559
sS'test_approx_error'
p306
F2486.53307328135
sS'test_l2_error'
p307
F51382866.936440863
ss.