(dp1
S'lp_rff_lambda_5.0_sigma_30.0_n_fp_rff_1024_nbit_16'
p2
(dp3
S'train_approx_error'
p4
F107533.52602812339
sS'train_l2_error'
p5
F116484152.45482858
sS'test_approx_error'
p6
F11972.997793732447
sS'test_l2_error'
p7
F136856543.77743164
ssS'lp_rff_lambda_0.5_sigma_30.0_n_fp_rff_16384_nbit_32'
p8
(dp9
S'train_approx_error'
p10
F2566.3180157598131
sS'train_l2_error'
p11
F39298416.978020184
sS'test_approx_error'
p12
F281.29210385260001
sS'test_l2_error'
p13
F46877021.629958227
ssS'exact_kernel_lambda_1.0_sigma_30.0'
p14
(dp15
S'train_approx_error'
p16
F0
sS'train_l2_error'
p17
F49661545.276632048
sS'test_approx_error'
p18
F0
sS'test_l2_error'
p19
F57315364.067455485
ssS'lp_rff_lambda_1.0_sigma_30.0_n_fp_rff_16384_nbit_32'
p20
(dp21
S'train_approx_error'
p22
F6240.9893825734571
sS'train_l2_error'
p23
F50313271.915346019
sS'test_approx_error'
p24
F697.04287822301865
sS'test_l2_error'
p25
F57579538.888297677
ssS'lp_rff_lambda_0.1_sigma_30.0_n_fp_rff_4096_nbit_8'
p26
(dp27
S'train_approx_error'
p28
F3917.6891640553054
sS'train_l2_error'
p29
F23754543.843323112
sS'test_approx_error'
p30
F439.32840263157129
sS'test_l2_error'
p31
F36777264.160815485
ssS'lp_rff_lambda_0.1_sigma_30.0_n_fp_rff_65536_nbit_16'
p32
(dp33
S'train_approx_error'
p34
F583.99978125443238
sS'train_l2_error'
p35
F23393717.895374242
sS'test_approx_error'
p36
F65.859302584038602
sS'test_l2_error'
p37
F36530301.340196662
ssS'lp_rff_lambda_0.1_sigma_30.0_n_fp_rff_16384_nbit_4'
p38
(dp39
S'train_approx_error'
p40
F506.703743328011
sS'train_l2_error'
p41
F23536529.057749737
sS'test_approx_error'
p42
F56.334701083496157
sS'test_l2_error'
p43
F37155975.516356677
ssS'lp_rff_lambda_0.5_sigma_30.0_n_fp_rff_4096_nbit_16'
p44
(dp45
S'train_approx_error'
p46
F23343.059179897158
sS'train_l2_error'
p47
F39237065.631776594
sS'test_approx_error'
p48
F2580.8794079615341
sS'test_l2_error'
p49
F47596036.597757399
ssS'lp_rff_lambda_0.1_sigma_30.0_n_fp_rff_16384_nbit_1'
p50
(dp51
S'train_approx_error'
p52
F1430.8944826902525
sS'train_l2_error'
p53
F31109704134.913357
sS'test_approx_error'
p54
F161.88988252762206
sS'test_l2_error'
p55
F376025290853.0304
ssS'lp_rff_lambda_0.1_sigma_30.0_n_fp_rff_1024_nbit_16'
p56
(dp57
S'train_approx_error'
p58
F39757.829392825239
sS'train_l2_error'
p59
F27029596.949497908
sS'test_approx_error'
p60
F4452.1207613080451
sS'test_l2_error'
p61
F40000052.078457721
ssS'lp_rff_lambda_5.0_sigma_30.0_n_fp_rff_4096_nbit_8'
p62
(dp63
S'train_approx_error'
p64
F2770.1388960391373
sS'train_l2_error'
p65
F111728491.42669028
sS'test_approx_error'
p66
F313.71042735171295
sS'test_l2_error'
p67
F128181971.64758442
ssS'lp_rff_lambda_0.1_sigma_30.0_n_fp_rff_16384_nbit_8'
p68
(dp69
S'train_approx_error'
p70
F349.51337442112521
sS'train_l2_error'
p71
F23310080.366980322
sS'test_approx_error'
p72
F39.712867863262815
sS'test_l2_error'
p73
F37076302.943597101
ssS'lp_rff_lambda_0.1_sigma_30.0_n_fp_rff_1024_nbit_2'
p74
(dp75
S'train_approx_error'
p76
F6411.6250151583536
sS'train_l2_error'
p77
F59655120548.510757
sS'test_approx_error'
p78
F710.41758026310436
sS'test_l2_error'
p79
F5305142991790.8125
ssS'lp_rff_lambda_1.0_sigma_30.0_n_fp_rff_1024_nbit_32'
p80
(dp81
S'train_approx_error'
p82
F277755.79540304828
sS'train_l2_error'
p83
F57354422.004930496
sS'test_approx_error'
p84
F30876.916506158654
sS'test_l2_error'
p85
F64794919.146657914
ssS'fp_rff_lambda_5.0_sigma_30.0_n_fp_rff_4096'
p86
(dp87
S'train_approx_error'
p88
F20408.103797919441
sS'train_l2_error'
p89
F112392208.17640029
sS'test_approx_error'
p90
F2284.3250626901063
sS'test_l2_error'
p91
F128179825.87781231
ssS'fp_rff_lambda_0.1_sigma_30.0_n_fp_rff_16384'
p92
(dp93
S'train_approx_error'
p94
F4888.4662484782848
sS'train_l2_error'
p95
F23589093.801142987
sS'test_approx_error'
p96
F557.26518656855819
sS'test_l2_error'
p97
F36945762.050464019
ssS'exact_kernel_lambda_5.0_sigma_30.0'
p98
(dp99
S'train_approx_error'
p100
F0
sS'train_l2_error'
p101
F111318955.60015735
sS'test_approx_error'
p102
F0
sS'test_l2_error'
p103
F128760569.28570651
ssS'lp_rff_lambda_5.0_sigma_30.0_n_fp_rff_4096_nbit_16'
p104
(dp105
S'train_approx_error'
p106
F9138.1326396714012
sS'train_l2_error'
p107
F111575420.75324334
sS'test_approx_error'
p108
F1020.8195460436353
sS'test_l2_error'
p109
F129443751.28267898
ssS'lp_rff_lambda_5.0_sigma_30.0_n_fp_rff_4096_nbit_4'
p110
(dp111
S'train_approx_error'
p112
F2018.8954129781587
sS'train_l2_error'
p113
F111335485.09119047
sS'test_approx_error'
p114
F224.08573064388449
sS'test_l2_error'
p115
F128695368.78692386
ssS'lp_rff_lambda_0.1_sigma_30.0_n_fp_rff_16384_nbit_32'
p116
(dp117
S'train_approx_error'
p118
F7583.0951852476992
sS'train_l2_error'
p119
F23584357.351659868
sS'test_approx_error'
p120
F845.14172324337778
sS'test_l2_error'
p121
F37013980.693665937
ssS'lp_rff_lambda_0.5_sigma_30.0_n_fp_rff_16384_nbit_4'
p122
(dp123
S'train_approx_error'
p124
F582.59005480204678
sS'train_l2_error'
p125
F38404987.346384682
sS'test_approx_error'
p126
F66.628518117893321
sS'test_l2_error'
p127
F47052783.535376094
ssS'fp_rff_lambda_0.5_sigma_30.0_n_fp_rff_4096'
p128
(dp129
S'train_approx_error'
p130
F15955.792468445303
sS'train_l2_error'
p131
F39971042.051166058
sS'test_approx_error'
p132
F1763.7459576089204
sS'test_l2_error'
p133
F47711027.442260869
ssS'fp_rff_lambda_0.1_sigma_30.0_n_fp_rff_4096'
p134
(dp135
S'train_approx_error'
p136
F47016.083977927992
sS'train_l2_error'
p137
F24768344.085282397
sS'test_approx_error'
p138
F5155.2777715396587
sS'test_l2_error'
p139
F36922743.915877566
ssS'lp_rff_lambda_0.1_sigma_30.0_n_fp_rff_4096_nbit_32'
p140
(dp141
S'train_approx_error'
p142
F10038.12514876147
sS'train_l2_error'
p143
F24530176.728691224
sS'test_approx_error'
p144
F1181.4585061777379
sS'test_l2_error'
p145
F38723036.247373544
ssS'fp_rff_lambda_1.0_sigma_30.0_n_fp_rff_1024'
p146
(dp147
S'train_approx_error'
p148
F54389.539847491484
sS'train_l2_error'
p149
F55716516.645001195
sS'test_approx_error'
p150
F6319.6986935877903
sS'test_l2_error'
p151
F64774770.544488892
ssS'lp_rff_lambda_1.0_sigma_30.0_n_fp_rff_4096_nbit_32'
p152
(dp153
S'train_approx_error'
p154
F13095.207701058689
sS'train_l2_error'
p155
F50786102.658417068
sS'test_approx_error'
p156
F1446.7522352403575
sS'test_l2_error'
p157
F57157529.221367233
ssS'lp_rff_lambda_0.5_sigma_30.0_n_fp_rff_16384_nbit_8'
p158
(dp159
S'train_approx_error'
p160
F1034.1839369291172
sS'train_l2_error'
p161
F38664836.54887747
sS'test_approx_error'
p162
F117.54030839897644
sS'test_l2_error'
p163
F47021204.875899889
ssS'lp_rff_lambda_0.5_sigma_30.0_n_fp_rff_16384_nbit_2'
p164
(dp165
S'train_approx_error'
p166
F402.13608980477323
sS'train_l2_error'
p167
F39061824.907586843
sS'test_approx_error'
p168
F43.994699290849056
sS'test_l2_error'
p169
F57131466.948145248
ssS'lp_rff_lambda_0.5_sigma_30.0_n_fp_rff_16384_nbit_1'
p170
(dp171
S'train_approx_error'
p172
F1462.1129452837274
sS'train_l2_error'
p173
F48392173.470545605
sS'test_approx_error'
p174
F162.69209971216102
sS'test_l2_error'
p175
F56545785.196328357
ssS'lp_rff_lambda_5.0_sigma_30.0_n_fp_rff_16384_nbit_32'
p176
(dp177
S'train_approx_error'
p178
F41799.972470834051
sS'train_l2_error'
p179
F112123833.7415068
sS'test_approx_error'
p180
F4648.9691908480454
sS'test_l2_error'
p181
F128972270.48119433
ssS'fp_rff_lambda_0.5_sigma_30.0_n_fp_rff_16384'
p182
(dp183
S'train_approx_error'
p184
F1754.8064849118346
sS'train_l2_error'
p185
F38569810.462381832
sS'test_approx_error'
p186
F197.00083314999597
sS'test_l2_error'
p187
F47023590.807212457
ssS'lp_rff_lambda_0.5_sigma_30.0_n_fp_rff_1024_nbit_32'
p188
(dp189
S'train_approx_error'
p190
F143166.28887288619
sS'train_l2_error'
p191
F45428418.758401662
sS'test_approx_error'
p192
F15640.461731219642
sS'test_l2_error'
p193
F52212287.642921619
ssS'lp_rff_lambda_0.1_sigma_30.0_n_fp_rff_65536_nbit_8'
p194
(dp195
S'train_approx_error'
p196
F125.66185372451537
sS'train_l2_error'
p197
F23340987.216402054
sS'test_approx_error'
p198
F14.060058885287695
sS'test_l2_error'
p199
F36669094.992793284
ssS'lp_rff_lambda_5.0_sigma_30.0_n_fp_rff_16384_nbit_8'
p200
(dp201
S'train_approx_error'
p202
F778.48885842348773
sS'train_l2_error'
p203
F111321895.56263331
sS'test_approx_error'
p204
F86.977889437592637
sS'test_l2_error'
p205
F128477781.41556442
ssS'lp_rff_lambda_0.1_sigma_30.0_n_fp_rff_65536_nbit_2'
p206
(dp207
S'train_approx_error'
p208
F186.13964494893645
sS'train_l2_error'
p209
F24211929.312137
sS'test_approx_error'
p210
F20.889998362880544
sS'test_l2_error'
p211
F39013594.787537113
ssS'lp_rff_lambda_0.1_sigma_30.0_n_fp_rff_65536_nbit_4'
p212
(dp213
S'train_approx_error'
p214
F64.419984984256018
sS'train_l2_error'
p215
F23313379.561020061
sS'test_approx_error'
p216
F7.0627005270727308
sS'test_l2_error'
p217
F36783227.347950771
ssS'lp_rff_lambda_0.5_sigma_30.0_n_fp_rff_1024_nbit_8'
p218
(dp219
S'train_approx_error'
p220
F8565.2437652415101
sS'train_l2_error'
p221
F39479453.163921461
sS'test_approx_error'
p222
F983.53421022991915
sS'test_l2_error'
p223
F47388582.513488032
ssS'lp_rff_lambda_0.5_sigma_30.0_n_fp_rff_1024_nbit_1'
p224
(dp225
S'train_approx_error'
p226
F26555.770406530319
sS'train_l2_error'
p227
F15312011546375.52
sS'test_approx_error'
p228
F2947.2371184566991
sS'test_l2_error'
p229
F81954355570420.062
ssS'lp_rff_lambda_0.5_sigma_30.0_n_fp_rff_1024_nbit_2'
p230
(dp231
S'train_approx_error'
p232
F8030.0729621061719
sS'train_l2_error'
p233
F52558391.787824169
sS'test_approx_error'
p234
F880.23964734609592
sS'test_l2_error'
p235
F72304588.904900789
ssS'lp_rff_lambda_0.5_sigma_30.0_n_fp_rff_1024_nbit_4'
p236
(dp237
S'train_approx_error'
p238
F17428.877028892741
sS'train_l2_error'
p239
F40487586.03321857
sS'test_approx_error'
p240
F1947.1392387953827
sS'test_l2_error'
p241
F55842749.649361648
ssS'lp_rff_lambda_5.0_sigma_30.0_n_fp_rff_16384_nbit_4'
p242
(dp243
S'train_approx_error'
p244
F577.44114091282927
sS'train_l2_error'
p245
F111365817.83587153
sS'test_approx_error'
p246
F66.161196901782944
sS'test_l2_error'
p247
F128519183.93871041
ssS'lp_rff_lambda_0.5_sigma_30.0_n_fp_rff_16384_nbit_16'
p248
(dp249
S'train_approx_error'
p250
F30145.876700512705
sS'train_l2_error'
p251
F38355285.355835222
sS'test_approx_error'
p252
F3344.2602094760564
sS'test_l2_error'
p253
F46706661.451804303
ssS'lp_rff_lambda_0.1_sigma_30.0_n_fp_rff_1024_nbit_4'
p254
(dp255
S'train_approx_error'
p256
F17082.988355609941
sS'train_l2_error'
p257
F25636611.105126571
sS'test_approx_error'
p258
F1936.2843794438688
sS'test_l2_error'
p259
F129509890.31784533
ssS'lp_rff_lambda_0.5_sigma_30.0_n_fp_rff_4096_nbit_1'
p260
(dp261
S'train_approx_error'
p262
F6055.9592992332737
sS'train_l2_error'
p263
F128564854.1143823
sS'test_approx_error'
p264
F672.61951416245324
sS'test_l2_error'
p265
F209632837.27860853
ssS'lp_rff_lambda_0.5_sigma_30.0_n_fp_rff_4096_nbit_2'
p266
(dp267
S'train_approx_error'
p268
F1835.372725295179
sS'train_l2_error'
p269
F41506172.429472327
sS'test_approx_error'
p270
F213.27484149888926
sS'test_l2_error'
p271
F54892572.528700516
ssS'lp_rff_lambda_0.5_sigma_30.0_n_fp_rff_4096_nbit_4'
p272
(dp273
S'train_approx_error'
p274
F2039.2789076853658
sS'train_l2_error'
p275
F39291686.098721758
sS'test_approx_error'
p276
F222.54251981698656
sS'test_l2_error'
p277
F47593114.536562428
ssS'lp_rff_lambda_0.1_sigma_30.0_n_fp_rff_1024_nbit_1'
p278
(dp279
S'train_approx_error'
p280
F23013.622506267082
sS'train_l2_error'
p281
F363972139754.2179
sS'test_approx_error'
p282
F2622.3742508282976
sS'test_l2_error'
p283
F34436344659097.441
ssS'lp_rff_lambda_1.0_sigma_30.0_n_fp_rff_16384_nbit_16'
p284
(dp285
S'train_approx_error'
p286
F1024.3108977916663
sS'train_l2_error'
p287
F49772039.483733125
sS'test_approx_error'
p288
F115.99231153965326
sS'test_l2_error'
p289
F57323301.389627725
ssS'lp_rff_lambda_0.5_sigma_30.0_n_fp_rff_4096_nbit_8'
p290
(dp291
S'train_approx_error'
p292
F3011.8546882222754
sS'train_l2_error'
p293
F39175713.356447786
sS'test_approx_error'
p294
F329.92976199474202
sS'test_l2_error'
p295
F46904229.728728741
ssS'lp_rff_lambda_5.0_sigma_30.0_n_fp_rff_1024_nbit_32'
p296
(dp297
S'train_approx_error'
p298
F59826.243649706237
sS'train_l2_error'
p299
F124710489.7746135
sS'test_approx_error'
p300
F6603.4115577001721
sS'test_l2_error'
p301
F148373286.00884902
ssS'lp_rff_lambda_0.1_sigma_30.0_n_fp_rff_1024_nbit_8'
p302
(dp303
S'train_approx_error'
p304
F10872.668948197268
sS'train_l2_error'
p305
F24373442.564931691
sS'test_approx_error'
p306
F1232.1292663926204
sS'test_l2_error'
p307
F38851985.751692481
ssS'lp_rff_lambda_5.0_sigma_30.0_n_fp_rff_4096_nbit_1'
p308
(dp309
S'train_approx_error'
p310
F8279.8942664675451
sS'train_l2_error'
p311
F117379639.75307278
sS'test_approx_error'
p312
F921.58554648601978
sS'test_l2_error'
p313
F141857980.55799267
ssS'lp_rff_lambda_5.0_sigma_30.0_n_fp_rff_4096_nbit_2'
p314
(dp315
S'train_approx_error'
p316
F2173.505499206698
sS'train_l2_error'
p317
F112264114.5265664
sS'test_approx_error'
p318
F247.74078612125339
sS'test_l2_error'
p319
F130062668.98535366
ssS'lp_rff_lambda_0.1_sigma_30.0_n_fp_rff_65536_nbit_32'
p320
(dp321
S'train_approx_error'
p322
F23004.420374436879
sS'train_l2_error'
p323
F23430927.834228162
sS'test_approx_error'
p324
F2546.9065890555521
sS'test_l2_error'
p325
F36574952.430652328
ssS'fp_rff_lambda_1.0_sigma_30.0_n_fp_rff_16384'
p326
(dp327
S'train_approx_error'
p328
F2317.8286658116185
sS'train_l2_error'
p329
F50177577.223461024
sS'test_approx_error'
p330
F262.36983173619956
sS'test_l2_error'
p331
F57158555.761160575
ssS'lp_rff_lambda_5.0_sigma_30.0_n_fp_rff_1024_nbit_8'
p332
(dp333
S'train_approx_error'
p334
F59620.127645614804
sS'train_l2_error'
p335
F112360622.2831523
sS'test_approx_error'
p336
F6683.7556972550947
sS'test_l2_error'
p337
F130829016.82887973
ssS'lp_rff_lambda_0.5_sigma_30.0_n_fp_rff_4096_nbit_32'
p338
(dp339
S'train_approx_error'
p340
F9734.9707569469228
sS'train_l2_error'
p341
F40516625.983576648
sS'test_approx_error'
p342
F1097.5500335086301
sS'test_l2_error'
p343
F46598174.123077877
ssS'lp_rff_lambda_5.0_sigma_30.0_n_fp_rff_1024_nbit_4'
p344
(dp345
S'train_approx_error'
p346
F68278.449178600989
sS'train_l2_error'
p347
F113061965.95169702
sS'test_approx_error'
p348
F7523.1266138697374
sS'test_l2_error'
p349
F133430556.97431549
ssS'lp_rff_lambda_5.0_sigma_30.0_n_fp_rff_1024_nbit_1'
p350
(dp351
S'train_approx_error'
p352
F23003.670910636283
sS'train_l2_error'
p353
F137949072.92787424
sS'test_approx_error'
p354
F2590.4089984979382
sS'test_l2_error'
p355
F154244108.70724782
ssS'lp_rff_lambda_5.0_sigma_30.0_n_fp_rff_1024_nbit_2'
p356
(dp357
S'train_approx_error'
p358
F5248.1117302727253
sS'train_l2_error'
p359
F118889627.17620955
sS'test_approx_error'
p360
F568.49481814383159
sS'test_l2_error'
p361
F137389900.08180493
ssS'lp_rff_lambda_1.0_sigma_30.0_n_fp_rff_4096_nbit_8'
p362
(dp363
S'train_approx_error'
p364
F3460.0708900761501
sS'train_l2_error'
p365
F50441287.962179549
sS'test_approx_error'
p366
F393.42088082420412
sS'test_l2_error'
p367
F58495978.669980966
ssS'lp_rff_lambda_0.1_sigma_30.0_n_fp_rff_1024_nbit_32'
p368
(dp369
S'train_approx_error'
p370
F30478.813479927474
sS'train_l2_error'
p371
F30269619.982457515
sS'test_approx_error'
p372
F3279.3660760107414
sS'test_l2_error'
p373
F44225082.310951009
ssS'lp_rff_lambda_1.0_sigma_30.0_n_fp_rff_1024_nbit_16'
p374
(dp375
S'train_approx_error'
p376
F53892.376807464345
sS'train_l2_error'
p377
F52206570.599337235
sS'test_approx_error'
p378
F5994.0115660928277
sS'test_l2_error'
p379
F56227374.148733087
ssS'exact_kernel_lambda_0.1_sigma_30.0'
p380
(dp381
S'train_approx_error'
p382
F0
sS'train_l2_error'
p383
F23307098.627560809
sS'test_approx_error'
p384
F0
sS'test_l2_error'
p385
F36577051.547772147
ssS'lp_rff_lambda_0.1_sigma_30.0_n_fp_rff_4096_nbit_2'
p386
(dp387
S'train_approx_error'
p388
F16338.967808987616
sS'train_l2_error'
p389
F48375418.17861224
sS'test_approx_error'
p390
F1809.4837724711977
sS'test_l2_error'
p391
F132176020.64277399
ssS'exact_kernel_lambda_0.5_sigma_30.0'
p392
(dp393
S'train_approx_error'
p394
F0
sS'train_l2_error'
p395
F38389659.125364758
sS'test_approx_error'
p396
F0
sS'test_l2_error'
p397
F46562250.076928392
ssS'lp_rff_lambda_1.0_sigma_30.0_n_fp_rff_4096_nbit_2'
p398
(dp399
S'train_approx_error'
p400
F13388.820640209522
sS'train_l2_error'
p401
F52340780.00410521
sS'test_approx_error'
p402
F1491.724295460373
sS'test_l2_error'
p403
F60117676.940136015
ssS'lp_rff_lambda_1.0_sigma_30.0_n_fp_rff_4096_nbit_4'
p404
(dp405
S'train_approx_error'
p406
F1133.9274841452805
sS'train_l2_error'
p407
F49886235.920430742
sS'test_approx_error'
p408
F126.05136778324876
sS'test_l2_error'
p409
F57282988.04261668
ssS'lp_rff_lambda_0.1_sigma_30.0_n_fp_rff_16384_nbit_2'
p410
(dp411
S'train_approx_error'
p412
F368.20159023000667
sS'train_l2_error'
p413
F27401455.032774504
sS'test_approx_error'
p414
F41.512103843172923
sS'test_l2_error'
p415
F84221176.867839456
ssS'fp_rff_lambda_0.5_sigma_30.0_n_fp_rff_1024'
p416
(dp417
S'train_approx_error'
p418
F67585.243515233247
sS'train_l2_error'
p419
F44741054.965863228
sS'test_approx_error'
p420
F7510.7207016347602
sS'test_l2_error'
p421
F51559272.345483944
ssS'lp_rff_lambda_0.1_sigma_30.0_n_fp_rff_4096_nbit_16'
p422
(dp423
S'train_approx_error'
p424
F8709.6366241902069
sS'train_l2_error'
p425
F23585667.751647826
sS'test_approx_error'
p426
F975.18499804942735
sS'test_l2_error'
p427
F35987259.729578696
ssS'lp_rff_lambda_5.0_sigma_30.0_n_fp_rff_4096_nbit_32'
p428
(dp429
S'train_approx_error'
p430
F10796.37270149822
sS'train_l2_error'
p431
F117440485.41445355
sS'test_approx_error'
p432
F1229.3045362392791
sS'test_l2_error'
p433
F134671224.61246982
ssS'fp_rff_lambda_1.0_sigma_30.0_n_fp_rff_4096'
p434
(dp435
S'train_approx_error'
p436
F6427.0963245917046
sS'train_l2_error'
p437
F51943740.927110247
sS'test_approx_error'
p438
F735.94099062195141
sS'test_l2_error'
p439
F58453190.419310533
ssS'lp_rff_lambda_0.1_sigma_30.0_n_fp_rff_4096_nbit_4'
p440
(dp441
S'train_approx_error'
p442
F2943.5814418559703
sS'train_l2_error'
p443
F23896547.903594889
sS'test_approx_error'
p444
F331.42794715276932
sS'test_l2_error'
p445
F46599918.250119284
ssS'lp_rff_lambda_1.0_sigma_30.0_n_fp_rff_4096_nbit_16'
p446
(dp447
S'train_approx_error'
p448
F8654.2497452478565
sS'train_l2_error'
p449
F49626890.257789053
sS'test_approx_error'
p450
F971.17481025102813
sS'test_l2_error'
p451
F58619912.269102827
ssS'lp_rff_lambda_1.0_sigma_30.0_n_fp_rff_1024_nbit_1'
p452
(dp453
S'train_approx_error'
p454
F24538.726363149402
sS'train_l2_error'
p455
F249341859.25021973
sS'test_approx_error'
p456
F2787.4742583849629
sS'test_l2_error'
p457
F307228765.21118712
ssS'lp_rff_lambda_5.0_sigma_30.0_n_fp_rff_16384_nbit_16'
p458
(dp459
S'train_approx_error'
p460
F6104.2071397758655
sS'train_l2_error'
p461
F110782883.76049116
sS'test_approx_error'
p462
F673.99015945180463
sS'test_l2_error'
p463
F128723588.61385281
ssS'lp_rff_lambda_1.0_sigma_30.0_n_fp_rff_1024_nbit_4'
p464
(dp465
S'train_approx_error'
p466
F5101.4776855516575
sS'train_l2_error'
p467
F51374903.631231278
sS'test_approx_error'
p468
F573.92420034976146
sS'test_l2_error'
p469
F60201067.993015662
ssS'lp_rff_lambda_1.0_sigma_30.0_n_fp_rff_1024_nbit_8'
p470
(dp471
S'train_approx_error'
p472
F53122.699247079538
sS'train_l2_error'
p473
F51125460.16015546
sS'test_approx_error'
p474
F5839.3081455586407
sS'test_l2_error'
p475
F59980547.54338672
ssS'lp_rff_lambda_0.5_sigma_30.0_n_fp_rff_1024_nbit_16'
p476
(dp477
S'train_approx_error'
p478
F160566.24689441102
sS'train_l2_error'
p479
F41482685.739474177
sS'test_approx_error'
p480
F18006.498457891023
sS'test_l2_error'
p481
F48588165.438174762
ssS'lp_rff_lambda_0.1_sigma_30.0_n_fp_rff_4096_nbit_1'
p482
(dp483
S'train_approx_error'
p484
F6183.9834950406976
sS'train_l2_error'
p485
F290242134901.71185
sS'test_approx_error'
p486
F678.96299293192556
sS'test_l2_error'
p487
F12375697669990.615
ssS'fp_rff_lambda_5.0_sigma_30.0_n_fp_rff_16384'
p488
(dp489
S'train_approx_error'
p490
F16272.148126138214
sS'train_l2_error'
p491
F112346786.33580607
sS'test_approx_error'
p492
F1798.1056985386217
sS'test_l2_error'
p493
F130398461.40299638
ssS'fp_rff_lambda_0.1_sigma_30.0_n_fp_rff_65536'
p494
(dp495
S'train_approx_error'
p496
F2301.4182677612607
sS'train_l2_error'
p497
F23393312.004688069
sS'test_approx_error'
p498
F258.07420774693674
sS'test_l2_error'
p499
F36495119.844371058
ssS'fp_rff_lambda_5.0_sigma_30.0_n_fp_rff_1024'
p500
(dp501
S'train_approx_error'
p502
F44641.212841633336
sS'train_l2_error'
p503
F121060511.72559825
sS'test_approx_error'
p504
F4997.2818686660867
sS'test_l2_error'
p505
F133272702.628417
ssS'lp_rff_lambda_5.0_sigma_30.0_n_fp_rff_16384_nbit_2'
p506
(dp507
S'train_approx_error'
p508
F1206.6321789595363
sS'train_l2_error'
p509
F111782665.34654602
sS'test_approx_error'
p510
F134.28232937786714
sS'test_l2_error'
p511
F129137699.02045545
ssS'lp_rff_lambda_1.0_sigma_30.0_n_fp_rff_1024_nbit_2'
p512
(dp513
S'train_approx_error'
p514
F7550.1153003651089
sS'train_l2_error'
p515
F58835313.533575863
sS'test_approx_error'
p516
F868.90391460346598
sS'test_l2_error'
p517
F76739252.241326123
ssS'lp_rff_lambda_5.0_sigma_30.0_n_fp_rff_16384_nbit_1'
p518
(dp519
S'train_approx_error'
p520
F1480.234301363841
sS'train_l2_error'
p521
F113349464.59581037
sS'test_approx_error'
p522
F162.82245960205739
sS'test_l2_error'
p523
F131287482.20060948
ssS'lp_rff_lambda_1.0_sigma_30.0_n_fp_rff_16384_nbit_2'
p524
(dp525
S'train_approx_error'
p526
F426.49450448188577
sS'train_l2_error'
p527
F50205739.0833048
sS'test_approx_error'
p528
F47.284552404203694
sS'test_l2_error'
p529
F57796194.540575698
ssS'fp_rff_lambda_0.1_sigma_30.0_n_fp_rff_1024'
p530
(dp531
S'train_approx_error'
p532
F34075.581076946524
sS'train_l2_error'
p533
F30466404.384689979
sS'test_approx_error'
p534
F3784.6967651698365
sS'test_l2_error'
p535
F44492138.824396752
ssS'lp_rff_lambda_1.0_sigma_30.0_n_fp_rff_16384_nbit_1'
p536
(dp537
S'train_approx_error'
p538
F1916.7041281726181
sS'train_l2_error'
p539
F53919641.545294195
sS'test_approx_error'
p540
F218.4915740576381
sS'test_l2_error'
p541
F64419753.301267393
ssS'lp_rff_lambda_1.0_sigma_30.0_n_fp_rff_16384_nbit_4'
p542
(dp543
S'train_approx_error'
p544
F3137.4104697673192
sS'train_l2_error'
p545
F49789162.778643616
sS'test_approx_error'
p546
F346.65462088545712
sS'test_l2_error'
p547
F57965082.621218309
ssS'lp_rff_lambda_1.0_sigma_30.0_n_fp_rff_4096_nbit_1'
p548
(dp549
S'train_approx_error'
p550
F5993.7076040352076
sS'train_l2_error'
p551
F68519119.40970017
sS'test_approx_error'
p552
F660.49853799699213
sS'test_l2_error'
p553
F81454475.260205448
ssS'lp_rff_lambda_1.0_sigma_30.0_n_fp_rff_16384_nbit_8'
p554
(dp555
S'train_approx_error'
p556
F1270.2792533398215
sS'train_l2_error'
p557
F49571426.454117194
sS'test_approx_error'
p558
F139.85893790285525
sS'test_l2_error'
p559
F56994884.129279003
ssS'lp_rff_lambda_0.1_sigma_30.0_n_fp_rff_16384_nbit_16'
p560
(dp561
S'train_approx_error'
p562
F12924.712686325802
sS'train_l2_error'
p563
F23534833.529049706
sS'test_approx_error'
p564
F1421.4636102903337
sS'test_l2_error'
p565
F36868073.257176809
ss.